; Function Attrs: mustprogress uwtable
define void @_ZN18OpenImageIO_v2_6_010Filesystem4openERSt14basic_ifstreamIcSt11char_traitsIcEENS_17basic_string_viewIcS3_EESt13_Ios_Openmode(ptr noundef nonnull align 8 dereferenceable(256) %stream, ptr nocapture noundef readonly %path, i32 noundef %mode) local_unnamed_addr #5 personality ptr @__gxx_personality_v0 {
entry:
  %ref.tmp.i = alloca %"class.std::allocator", align 1
  %ref.tmp = alloca %"class.std::__cxx11::basic_string", align 8
  call void @llvm.lifetime.start.p0(i64 1, ptr nonnull %ref.tmp.i)
  %0 = load ptr, ptr %path, align 8, !noalias !168
  %tobool.not.not.i = icmp eq ptr %0, null
  br i1 %tobool.not.not.i, label %cond.end.thread.i, label %cond.true.i

cond.true.i:                                      ; preds = %entry
  %m_len.i = getelementptr inbounds i8, ptr %path, i64 8
  %1 = load i64, ptr %m_len.i, align 8, !noalias !168
  call void @_ZNSaIcEC1Ev(ptr noundef nonnull align 1 dereferenceable(1) %ref.tmp.i) #32, !noalias !168
  invoke void @_ZNSt7__cxx1112basic_stringIcSt11char_traitsIcESaIcEEC1EPKcmRKS3_(ptr noundef nonnull align 8 dereferenceable(32) %ref.tmp, ptr noundef nonnull %0, i64 noundef %1, ptr noundef nonnull align 1 dereferenceable(1) %ref.tmp.i)
          to label %cleanup.action.i unwind label %lpad.i

cond.end.thread.i:                                ; preds = %entry
  call void @_ZNSt7__cxx1112basic_stringIcSt11char_traitsIcESaIcEEC1Ev(ptr noundef nonnull align 8 dereferenceable(32) %ref.tmp) #32
  br label %_ZNK18OpenImageIO_v2_6_017basic_string_viewIcSt11char_traitsIcEEcvNSt7__cxx1112basic_stringIcS2_SaIcEEEEv.exit

cleanup.action.i:                                 ; preds = %cond.true.i
  call void @_ZNSaIcED1Ev(ptr noundef nonnull align 1 dereferenceable(1) %ref.tmp.i) #32
  br label %_ZNK18OpenImageIO_v2_6_017basic_string_viewIcSt11char_traitsIcEEcvNSt7__cxx1112basic_stringIcS2_SaIcEEEEv.exit

common.resume:                                    ; preds = %lpad, %lpad.i
  %common.resume.op = phi { ptr, i32 } [ %2, %lpad.i ], [ %3, %lpad ]
  resume { ptr, i32 } %common.resume.op

lpad.i:                                           ; preds = %cond.true.i
  %2 = landingpad { ptr, i32 }
          cleanup
  call void @_ZNSaIcED1Ev(ptr noundef nonnull align 1 dereferenceable(1) %ref.tmp.i) #32
  br label %common.resume

_ZNK18OpenImageIO_v2_6_017basic_string_viewIcSt11char_traitsIcEEcvNSt7__cxx1112basic_stringIcS2_SaIcEEEEv.exit: ; preds = %cond.end.thread.i, %cleanup.action.i
  call void @llvm.lifetime.end.p0(i64 1, ptr nonnull %ref.tmp.i)
  invoke void @_ZNSt14basic_ifstreamIcSt11char_traitsIcEE4openERKNSt7__cxx1112basic_stringIcS1_SaIcEEESt13_Ios_Openmode(ptr noundef nonnull align 8 dereferenceable(256) %stream, ptr noundef nonnull align 8 dereferenceable(32) %ref.tmp, i32 noundef %mode)
          to label %invoke.cont unwind label %lpad

invoke.cont:                                      ; preds = %_ZNK18OpenImageIO_v2_6_017basic_string_viewIcSt11char_traitsIcEEcvNSt7__cxx1112basic_stringIcS2_SaIcEEEEv.exit
  call void @_ZNSt7__cxx1112basic_stringIcSt11char_traitsIcESaIcEED1Ev(ptr noundef nonnull align 8 dereferenceable(32) %ref.tmp) #32
  ret void

lpad:                                             ; preds = %_ZNK18OpenImageIO_v2_6_017basic_string_viewIcSt11char_traitsIcEEcvNSt7__cxx1112basic_stringIcS2_SaIcEEEEv.exit
  %3 = landingpad { ptr, i32 }
          cleanup
  call void @_ZNSt7__cxx1112basic_stringIcSt11char_traitsIcESaIcEED1Ev(ptr noundef nonnull align 8 dereferenceable(32) %ref.tmp) #32
  br label %common.resume
}